target datalayout = "e-m:e-p270:32:32-p271:32:32-p272:64:64-i64:64-i128:128-f80:128-n8:16:32:64-S128"
target triple = "x86_64-pc-linux-gnu"

%struct.SN_env = type { ptr, i32, i32, i32, i32, i32, ptr, ptr }

@g_vowel = internal constant [27 x i8] c"\11A\10\00\00\00\00\00\00\00\00\00\00\00\00\00\00\00 \08\00\00\00\00\00\00\01", align 16
@g_U = internal constant [26 x i8] c"\01\10\00\00\00\00\00\00\00\00\00\00\00\00\00\00\00\00\08\00\00\00\00\00\00\01", align 16

; Function Attrs: nounwind uwtable
define internal i32 @r_mark_suffix_with_optional_U_vowel(ptr noundef %0) #0 {
  %2 = alloca i32, align 4
  %3 = alloca ptr, align 8
  %4 = alloca i32, align 4
  %5 = alloca i32, align 4
  %6 = alloca i32, align 4
  %7 = alloca i32, align 4
  %8 = alloca i32, align 4
  %9 = alloca i32, align 4
  %10 = alloca i32, align 4
  store ptr %0, ptr %3, align 8
  call void @llvm.lifetime.start.p0(i64 4, ptr %4) #3
  %11 = load ptr, ptr %3, align 8
  %12 = getelementptr inbounds nuw %struct.SN_env, ptr %11, i32 0, i32 2
  %13 = load i32, ptr %12, align 4
  %14 = load ptr, ptr %3, align 8
  %15 = getelementptr inbounds nuw %struct.SN_env, ptr %14, i32 0, i32 1
  %16 = load i32, ptr %15, align 8
  %17 = sub i32 %13, %16
  store i32 %17, ptr %4, align 4
  %18 = load ptr, ptr %3, align 8
  %19 = call i32 @in_grouping_b_U(ptr noundef %18, ptr noundef @g_U, i32 noundef 105, i32 noundef 305, i32 noundef 0)
  %20 = icmp ne i32 %19, 0
  br i1 %20, label %21, label %22

21:                                               ; preds = %1
  br label %45

22:                                               ; preds = %1
  call void @llvm.lifetime.start.p0(i64 4, ptr %5) #3
  %23 = load ptr, ptr %3, align 8
  %24 = getelementptr inbounds nuw %struct.SN_env, ptr %23, i32 0, i32 2
  %25 = load i32, ptr %24, align 4
  %26 = load ptr, ptr %3, align 8
  %27 = getelementptr inbounds nuw %struct.SN_env, ptr %26, i32 0, i32 1
  %28 = load i32, ptr %27, align 8
  %29 = sub i32 %25, %28
  store i32 %29, ptr %5, align 4
  %30 = load ptr, ptr %3, align 8
  %31 = call i32 @out_grouping_b_U(ptr noundef %30, ptr noundef @g_vowel, i32 noundef 97, i32 noundef 305, i32 noundef 0)
  %32 = icmp ne i32 %31, 0
  br i1 %32, label %33, label %34

33:                                               ; preds = %22
  store i32 2, ptr %6, align 4
  br label %42

34:                                               ; preds = %22
  %35 = load ptr, ptr %3, align 8
  %36 = getelementptr inbounds nuw %struct.SN_env, ptr %35, i32 0, i32 2
  %37 = load i32, ptr %36, align 4
  %38 = load i32, ptr %5, align 4
  %39 = sub i32 %37, %38
  %40 = load ptr, ptr %3, align 8
  %41 = getelementptr inbounds nuw %struct.SN_env, ptr %40, i32 0, i32 1
  store i32 %39, ptr %41, align 8
  store i32 0, ptr %6, align 4
  br label %42

42:                                               ; preds = %33, %34
  call void @llvm.lifetime.end.p0(i64 4, ptr %5) #3
  %43 = load i32, ptr %6, align 4
  switch i32 %43, label %135 [
    i32 0, label %44
    i32 2, label %45
  ]

44:                                               ; preds = %42
  store i32 3, ptr %6, align 4
  br label %135

45:                                               ; preds = %42, %21
  %46 = load ptr, ptr %3, align 8
  %47 = getelementptr inbounds nuw %struct.SN_env, ptr %46, i32 0, i32 2
  %48 = load i32, ptr %47, align 4
  %49 = load i32, ptr %4, align 4
  %50 = sub i32 %48, %49
  %51 = load ptr, ptr %3, align 8
  %52 = getelementptr inbounds nuw %struct.SN_env, ptr %51, i32 0, i32 1
  store i32 %50, ptr %52, align 8
  call void @llvm.lifetime.start.p0(i64 4, ptr %7) #3
  %53 = load ptr, ptr %3, align 8
  %54 = getelementptr inbounds nuw %struct.SN_env, ptr %53, i32 0, i32 2
  %55 = load i32, ptr %54, align 4
  %56 = load ptr, ptr %3, align 8
  %57 = getelementptr inbounds nuw %struct.SN_env, ptr %56, i32 0, i32 1
  %58 = load i32, ptr %57, align 8
  %59 = sub i32 %55, %58
  store i32 %59, ptr %7, align 4
  call void @llvm.lifetime.start.p0(i64 4, ptr %8) #3
  %60 = load ptr, ptr %3, align 8
  %61 = getelementptr inbounds nuw %struct.SN_env, ptr %60, i32 0, i32 2
  %62 = load i32, ptr %61, align 4
  %63 = load ptr, ptr %3, align 8
  %64 = getelementptr inbounds nuw %struct.SN_env, ptr %63, i32 0, i32 1
  %65 = load i32, ptr %64, align 8
  %66 = sub i32 %62, %65
  store i32 %66, ptr %8, align 4
  %67 = load ptr, ptr %3, align 8
  %68 = call i32 @in_grouping_b_U(ptr noundef %67, ptr noundef @g_U, i32 noundef 105, i32 noundef 305, i32 noundef 0)
  %69 = icmp ne i32 %68, 0
  br i1 %69, label %70, label %71

70:                                               ; preds = %45
  store i32 4, ptr %6, align 4
  br label %79

71:                                               ; preds = %45
  %72 = load ptr, ptr %3, align 8
  %73 = getelementptr inbounds nuw %struct.SN_env, ptr %72, i32 0, i32 2
  %74 = load i32, ptr %73, align 4
  %75 = load i32, ptr %8, align 4
  %76 = sub i32 %74, %75
  %77 = load ptr, ptr %3, align 8
  %78 = getelementptr inbounds nuw %struct.SN_env, ptr %77, i32 0, i32 1
  store i32 %76, ptr %78, align 8
  store i32 0, ptr %6, align 4
  br label %79

79:                                               ; preds = %70, %71
  call void @llvm.lifetime.end.p0(i64 4, ptr %8) #3
  %80 = load i32, ptr %6, align 4
  switch i32 %80, label %90 [
    i32 0, label %81
    i32 4, label %82
  ]

81:                                               ; preds = %79
  store i32 0, ptr %2, align 4
  store i32 1, ptr %6, align 4
  br label %90

82:                                               ; preds = %79
  %83 = load ptr, ptr %3, align 8
  %84 = getelementptr inbounds nuw %struct.SN_env, ptr %83, i32 0, i32 2
  %85 = load i32, ptr %84, align 4
  %86 = load i32, ptr %7, align 4
  %87 = sub i32 %85, %86
  %88 = load ptr, ptr %3, align 8
  %89 = getelementptr inbounds nuw %struct.SN_env, ptr %88, i32 0, i32 1
  store i32 %87, ptr %89, align 8
  store i32 0, ptr %6, align 4
  br label %90

90:                                               ; preds = %82, %81, %79
  call void @llvm.lifetime.end.p0(i64 4, ptr %7) #3
  %91 = load i32, ptr %6, align 4
  switch i32 %91, label %135 [
    i32 0, label %92
  ]

92:                                               ; preds = %90
  call void @llvm.lifetime.start.p0(i64 4, ptr %9) #3
  %93 = load ptr, ptr %3, align 8
  %94 = getelementptr inbounds nuw %struct.SN_env, ptr %93, i32 0, i32 2
  %95 = load i32, ptr %94, align 4
  %96 = load ptr, ptr %3, align 8
  %97 = getelementptr inbounds nuw %struct.SN_env, ptr %96, i32 0, i32 1
  %98 = load i32, ptr %97, align 8
  %99 = sub i32 %95, %98
  store i32 %99, ptr %9, align 4
  call void @llvm.lifetime.start.p0(i64 4, ptr %10) #3
  %100 = load ptr, ptr %3, align 8
  %101 = getelementptr inbounds nuw %struct.SN_env, ptr %100, i32 0, i32 0
  %102 = load ptr, ptr %101, align 8
  %103 = load ptr, ptr %3, align 8
  %104 = getelementptr inbounds nuw %struct.SN_env, ptr %103, i32 0, i32 1
  %105 = load i32, ptr %104, align 8
  %106 = load ptr, ptr %3, align 8
  %107 = getelementptr inbounds nuw %struct.SN_env, ptr %106, i32 0, i32 3
  %108 = load i32, ptr %107, align 8
  %109 = call i32 @skip_b_utf8(ptr noundef %102, i32 noundef %105, i32 noundef %108, i32 noundef 1)
  store i32 %109, ptr %10, align 4
  %110 = load i32, ptr %10, align 4
  %111 = icmp slt i32 %110, 0
  br i1 %111, label %112, label %113

112:                                              ; preds = %92
  store i32 0, ptr %2, align 4
  store i32 1, ptr %6, align 4
  br label %117

113:                                              ; preds = %92
  %114 = load i32, ptr %10, align 4
  %115 = load ptr, ptr %3, align 8
  %116 = getelementptr inbounds nuw %struct.SN_env, ptr %115, i32 0, i32 1
  store i32 %114, ptr %116, align 8
  store i32 0, ptr %6, align 4
  br label %117

117:                                              ; preds = %113, %112
  call void @llvm.lifetime.end.p0(i64 4, ptr %10) #3
  %118 = load i32, ptr %6, align 4
  switch i32 %118, label %132 [
    i32 0, label %119
  ]

119:                                              ; preds = %117
  %120 = load ptr, ptr %3, align 8
  %121 = call i32 @out_grouping_b_U(ptr noundef %120, ptr noundef @g_vowel, i32 noundef 97, i32 noundef 305, i32 noundef 0)
  %122 = icmp ne i32 %121, 0
  br i1 %122, label %123, label %124

123:                                              ; preds = %119
  store i32 0, ptr %2, align 4
  store i32 1, ptr %6, align 4
  br label %132

124:                                              ; preds = %119
  %125 = load ptr, ptr %3, align 8
  %126 = getelementptr inbounds nuw %struct.SN_env, ptr %125, i32 0, i32 2
  %127 = load i32, ptr %126, align 4
  %128 = load i32, ptr %9, align 4
  %129 = sub i32 %127, %128
  %130 = load ptr, ptr %3, align 8
  %131 = getelementptr inbounds nuw %struct.SN_env, ptr %130, i32 0, i32 1
  store i32 %129, ptr %131, align 8
  store i32 0, ptr %6, align 4
  br label %132

132:                                              ; preds = %124, %123, %117
  call void @llvm.lifetime.end.p0(i64 4, ptr %9) #3
  %133 = load i32, ptr %6, align 4
  switch i32 %133, label %135 [
    i32 0, label %134
  ]

134:                                              ; preds = %132
  store i32 0, ptr %6, align 4
  br label %135

135:                                              ; preds = %44, %134, %132, %90, %42
  call void @llvm.lifetime.end.p0(i64 4, ptr %4) #3
  %136 = load i32, ptr %6, align 4
  switch i32 %136, label %141 [
    i32 0, label %137
    i32 1, label %139
    i32 3, label %138
  ]

137:                                              ; preds = %135
  br label %138

138:                                              ; preds = %137, %135
  store i32 1, ptr %2, align 4
  br label %139

139:                                              ; preds = %138, %135
  %140 = load i32, ptr %2, align 4
  ret i32 %140

141:                                              ; preds = %135
  unreachable
}

; Function Attrs: nounwind uwtable
define internal i32 @r_mark_possessives(ptr noundef %0) #0 {
  %2 = alloca i32, align 4
  %3 = alloca ptr, align 8
  %4 = alloca i32, align 4
  %5 = alloca i32, align 4
  store ptr %0, ptr %3, align 8
  %6 = load ptr, ptr %3, align 8
  %7 = getelementptr inbounds nuw %struct.SN_env, ptr %6, i32 0, i32 1
  %8 = load i32, ptr %7, align 8
  %9 = load ptr, ptr %3, align 8
  %10 = getelementptr inbounds nuw %struct.SN_env, ptr %9, i32 0, i32 3
  %11 = load i32, ptr %10, align 8
  %12 = icmp sle i32 %8, %11
  br i1 %12, label %43, label %13

13:                                               ; preds = %1
  %14 = load ptr, ptr %3, align 8
  %15 = getelementptr inbounds nuw %struct.SN_env, ptr %14, i32 0, i32 0
  %16 = load ptr, ptr %15, align 8
  %17 = load ptr, ptr %3, align 8
  %18 = getelementptr inbounds nuw %struct.SN_env, ptr %17, i32 0, i32 1
  %19 = load i32, ptr %18, align 8
  %20 = sub i32 %19, 1
  %21 = sext i32 %20 to i64
  %22 = getelementptr inbounds i8, ptr %16, i64 %21
  %23 = load i8, ptr %22, align 1
  %24 = zext i8 %23 to i32
  %25 = ashr i32 %24, 5
  %26 = icmp ne i32 %25, 3
  br i1 %26, label %43, label %27

27:                                               ; preds = %13
  %28 = load ptr, ptr %3, align 8
  %29 = getelementptr inbounds nuw %struct.SN_env, ptr %28, i32 0, i32 0
  %30 = load ptr, ptr %29, align 8
  %31 = load ptr, ptr %3, align 8
  %32 = getelementptr inbounds nuw %struct.SN_env, ptr %31, i32 0, i32 1
  %33 = load i32, ptr %32, align 8
  %34 = sub i32 %33, 1
  %35 = sext i32 %34 to i64
  %36 = getelementptr inbounds i8, ptr %30, i64 %35
  %37 = load i8, ptr %36, align 1
  %38 = zext i8 %37 to i32
  %39 = and i32 %38, 31
  %40 = ashr i32 67133440, %39
  %41 = and i32 %40, 1
  %42 = icmp ne i32 %41, 0
  br i1 %42, label %44, label %43

43:                                               ; preds = %27, %13, %1
  store i32 0, ptr %2, align 4
  br label %60

44:                                               ; preds = %27
  %45 = load ptr, ptr %3, align 8
  %46 = call i32 @find_among_b(ptr noundef %45, ptr noundef @a_0, i32 noundef 10)
  %47 = icmp ne i32 %46, 0
  br i1 %47, label %49, label %48

48:                                               ; preds = %44
  store i32 0, ptr %2, align 4
  br label %60

49:                                               ; preds = %44
  call void @llvm.lifetime.start.p0(i64 4, ptr %4) #3
  %50 = load ptr, ptr %3, align 8
  %51 = call i32 @r_mark_suffix_with_optional_U_vowel(ptr noundef %50)
  store i32 %51, ptr %4, align 4
  %52 = load i32, ptr %4, align 4
  %53 = icmp sle i32 %52, 0
  br i1 %53, label %54, label %56

54:                                               ; preds = %49
  %55 = load i32, ptr %4, align 4
  store i32 %55, ptr %2, align 4
  store i32 1, ptr %5, align 4
  br label %57

56:                                               ; preds = %49
  store i32 0, ptr %5, align 4
  br label %57

57:                                               ; preds = %56, %54
  call void @llvm.lifetime.end.p0(i64 4, ptr %4) #3
  %58 = load i32, ptr %5, align 4
  switch i32 %58, label %62 [
    i32 0, label %59
    i32 1, label %60
  ]

59:                                               ; preds = %57
  store i32 1, ptr %2, align 4
  br label %60

60:                                               ; preds = %59, %57, %48, %43
  %61 = load i32, ptr %2, align 4
  ret i32 %61

62:                                               ; preds = %57
  unreachable
}