; Function Attrs: nounwind uwtable
define internal fastcc range(i32 0, 2) i32 @r_mark_possessives(ptr noundef %0) unnamed_addr #0 {
  %2 = getelementptr inbounds nuw i8, ptr %0, i64 8
  %3 = load i32, ptr %2, align 8
  %4 = getelementptr inbounds nuw i8, ptr %0, i64 16
  %5 = load i32, ptr %4, align 8
  %.not = icmp sgt i32 %3, %5
  br i1 %.not, label %6, label %r_mark_suffix_with_optional_U_vowel.exit

6:                                                ; preds = %1
  %7 = load ptr, ptr %0, align 8
  %8 = sext i32 %3 to i64
  %9 = getelementptr i8, ptr %7, i64 %8
  %10 = getelementptr i8, ptr %9, i64 -1
  %11 = load i8, ptr %10, align 1
  %12 = zext i8 %11 to i32
  %.mask = and i32 %12, 224
  %.not13 = icmp eq i32 %.mask, 96
  br i1 %.not13, label %13, label %r_mark_suffix_with_optional_U_vowel.exit

13:                                               ; preds = %6
  %14 = and i32 %12, 31
  %15 = shl nuw i32 1, %14
  %16 = and i32 %15, 67133440
  %.not14 = icmp eq i32 %16, 0
  br i1 %.not14, label %r_mark_suffix_with_optional_U_vowel.exit, label %17

17:                                               ; preds = %13
  %18 = tail call i32 @find_among_b(ptr noundef nonnull %0, ptr noundef nonnull @a_0, i32 noundef 10) #3
  %.not15 = icmp eq i32 %18, 0
  br i1 %.not15, label %r_mark_suffix_with_optional_U_vowel.exit, label %19

19:                                               ; preds = %17
  %20 = getelementptr inbounds nuw i8, ptr %0, i64 12
  %21 = load i32, ptr %20, align 4
  %22 = load i32, ptr %2, align 8
  %.neg49.i = sub i32 %22, %21
  %23 = tail call i32 @in_grouping_b_U(ptr noundef nonnull %0, ptr noundef nonnull @g_U, i32 noundef 105, i32 noundef 305, i32 noundef 0) #3
  %.not.i = icmp eq i32 %23, 0
  br i1 %.not.i, label %24, label %30

24:                                               ; preds = %19
  %25 = load i32, ptr %20, align 4
  %26 = load i32, ptr %2, align 8
  %27 = tail call i32 @out_grouping_b_U(ptr noundef nonnull %0, ptr noundef nonnull @g_vowel, i32 noundef 97, i32 noundef 305, i32 noundef 0) #3
  %.not48.i = icmp eq i32 %27, 0
  br i1 %.not48.i, label %.thread.i, label %30

.thread.i:                                        ; preds = %24
  %.neg.i = sub i32 %26, %25
  %28 = load i32, ptr %20, align 4
  %29 = add i32 %.neg.i, %28
  br label %.critedge.sink.split.i

30:                                               ; preds = %24, %19
  %31 = load i32, ptr %20, align 4
  %32 = add i32 %31, %.neg49.i
  store i32 %32, ptr %2, align 8
  %33 = tail call i32 @in_grouping_b_U(ptr noundef nonnull %0, ptr noundef nonnull @g_U, i32 noundef 105, i32 noundef 305, i32 noundef 0) #3
  %.not50.i = icmp eq i32 %33, 0
  %34 = load i32, ptr %20, align 4
  %35 = add i32 %34, %.neg49.i
  store i32 %35, ptr %2, align 8
  br i1 %.not50.i, label %r_mark_suffix_with_optional_U_vowel.exit, label %36

36:                                               ; preds = %30
  %37 = load ptr, ptr %0, align 8
  %38 = load i32, ptr %4, align 8
  %39 = tail call i32 @skip_b_utf8(ptr noundef %37, i32 noundef %35, i32 noundef %38, i32 noundef 1) #3
  %40 = icmp sgt i32 %39, -1
  br i1 %40, label %41, label %r_mark_suffix_with_optional_U_vowel.exit

41:                                               ; preds = %36
  store i32 %39, ptr %2, align 8
  %42 = tail call i32 @out_grouping_b_U(ptr noundef nonnull %0, ptr noundef nonnull @g_vowel, i32 noundef 97, i32 noundef 305, i32 noundef 0) #3
  %.not51.i = icmp eq i32 %42, 0
  br i1 %.not51.i, label %43, label %r_mark_suffix_with_optional_U_vowel.exit

43:                                               ; preds = %41
  %44 = load i32, ptr %20, align 4
  %45 = add i32 %44, %.neg49.i
  br label %.critedge.sink.split.i

.critedge.sink.split.i:                           ; preds = %43, %.thread.i
  %.sink.i = phi i32 [ %29, %.thread.i ], [ %45, %43 ]
  store i32 %.sink.i, ptr %2, align 8
  br label %r_mark_suffix_with_optional_U_vowel.exit

r_mark_suffix_with_optional_U_vowel.exit:         ; preds = %.critedge.sink.split.i, %41, %36, %30, %17, %1, %6, %13
  %.011 = phi i32 [ 0, %13 ], [ 0, %6 ], [ 0, %1 ], [ 0, %17 ], [ 0, %41 ], [ 0, %36 ], [ 0, %30 ], [ 1, %.critedge.sink.split.i ]
  ret i32 %.011
}